; Function Attrs: mustprogress uwtable
define void @_ZN5faiss24ProductAdditiveQuantizerC2EmRKSt6vectorIPNS_17AdditiveQuantizerESaIS3_EENS2_13Search_type_tE(ptr noundef nonnull align 8 dereferenceable(392) %0, i64 noundef %1, ptr noundef nonnull readonly align 8 captures(none) dereferenceable(24) %2, i32 noundef %3) unnamed_addr #0 align 2 personality ptr @__gxx_personality_v0 {
  tail call void @_ZN5faiss17AdditiveQuantizerC2Ev(ptr noundef nonnull align 8 dereferenceable(356) %0)
  store ptr getelementptr inbounds nuw inrange(-16, 64) (i8, ptr @_ZTVN5faiss24ProductAdditiveQuantizerE, i64 16), ptr %0, align 8, !tbaa !61
  %5 = getelementptr inbounds nuw i8, ptr %0, i64 368
  tail call void @llvm.memset.p0.i64(ptr noundef nonnull align 8 dereferenceable(24) %5, i8 0, i64 24, i1 false)
  invoke void @_ZN5faiss24ProductAdditiveQuantizer4initEmRKSt6vectorIPNS_17AdditiveQuantizerESaIS3_EENS2_13Search_type_tE(ptr noundef nonnull align 8 dereferenceable(392) %0, i64 noundef %1, ptr noundef nonnull align 8 dereferenceable(24) %2, i32 noundef %3)
          to label %6 unwind label %7

6:                                                ; preds = %4
  ret void

7:                                                ; preds = %4
  %8 = landingpad { ptr, i32 }
          cleanup
  %9 = load ptr, ptr %5, align 8, !tbaa !54
  %.not.i.i.i = icmp eq ptr %9, null
  br i1 %.not.i.i.i, label %_ZNSt6vectorIPN5faiss17AdditiveQuantizerESaIS2_EED2Ev.exit, label %10

10:                                               ; preds = %7
  %11 = getelementptr inbounds nuw i8, ptr %0, i64 384
  %12 = load ptr, ptr %11, align 8, !tbaa !78
  %13 = ptrtoint ptr %12 to i64
  %14 = ptrtoint ptr %9 to i64
  %15 = sub i64 %13, %14
  tail call void @_ZdlPvm(ptr noundef nonnull %9, i64 noundef %15) #23
  br label %_ZNSt6vectorIPN5faiss17AdditiveQuantizerESaIS2_EED2Ev.exit

_ZNSt6vectorIPN5faiss17AdditiveQuantizerESaIS2_EED2Ev.exit: ; preds = %7, %10
  tail call void @_ZN5faiss17AdditiveQuantizerD2Ev(ptr noundef nonnull align 8 dereferenceable(356) %0) #18
  resume { ptr, i32 } %8
}